target datalayout = "e-m:e-p270:32:32-p271:32:32-p272:64:64-i64:64-i128:128-f80:128-n8:16:32:64-S128"
target triple = "x86_64-pc-linux-gnu"

@.str.1 = private unnamed_addr constant [39 x i8] c"in function mp_encode_lua_table_as_map\00", align 1

; Function Attrs: nounwind uwtable
define dso_local void @mp_encode_lua_table_as_map(ptr noundef %0, ptr noundef %1, i32 noundef %2) #0 {
  %4 = alloca ptr, align 8
  %5 = alloca ptr, align 8
  %6 = alloca i32, align 4
  %7 = alloca i64, align 8
  store ptr %0, ptr %4, align 8, !tbaa !17
  store ptr %1, ptr %5, align 8, !tbaa !19
  store i32 %2, ptr %6, align 4, !tbaa !12
  call void @llvm.lifetime.start.p0(i64 8, ptr %7) #6
  store i64 0, ptr %7, align 8, !tbaa !8
  %8 = load ptr, ptr %4, align 8, !tbaa !17
  call void @luaL_checkstack(ptr noundef %8, i32 noundef 3, ptr noundef @.str.1)
  %9 = load ptr, ptr %4, align 8, !tbaa !17
  call void @lua_pushnil(ptr noundef %9)
  br label %10

10:                                               ; preds = %14, %3
  %11 = load ptr, ptr %4, align 8, !tbaa !17
  %12 = call i32 @lua_next(ptr noundef %11, i32 noundef -2)
  %13 = icmp ne i32 %12, 0
  br i1 %13, label %14, label %18

14:                                               ; preds = %10
  %15 = load ptr, ptr %4, align 8, !tbaa !17
  call void @lua_settop(ptr noundef %15, i32 noundef -2)
  %16 = load i64, ptr %7, align 8, !tbaa !8
  %17 = add i64 %16, 1
  store i64 %17, ptr %7, align 8, !tbaa !8
  br label %10, !llvm.loop !36

18:                                               ; preds = %10
  %19 = load ptr, ptr %4, align 8, !tbaa !17
  %20 = load ptr, ptr %5, align 8, !tbaa !19
  %21 = load i64, ptr %7, align 8, !tbaa !8
  call void @mp_encode_map(ptr noundef %19, ptr noundef %20, i64 noundef %21)
  %22 = load ptr, ptr %4, align 8, !tbaa !17
  call void @lua_pushnil(ptr noundef %22)
  br label %23

23:                                               ; preds = %27, %18
  %24 = load ptr, ptr %4, align 8, !tbaa !17
  %25 = call i32 @lua_next(ptr noundef %24, i32 noundef -2)
  %26 = icmp ne i32 %25, 0
  br i1 %26, label %27, label %37

27:                                               ; preds = %23
  %28 = load ptr, ptr %4, align 8, !tbaa !17
  call void @lua_pushvalue(ptr noundef %28, i32 noundef -2)
  %29 = load ptr, ptr %4, align 8, !tbaa !17
  %30 = load ptr, ptr %5, align 8, !tbaa !19
  %31 = load i32, ptr %6, align 4, !tbaa !12
  %32 = add nsw i32 %31, 1
  call void @mp_encode_lua_type(ptr noundef %29, ptr noundef %30, i32 noundef %32)
  %33 = load ptr, ptr %4, align 8, !tbaa !17
  %34 = load ptr, ptr %5, align 8, !tbaa !19
  %35 = load i32, ptr %6, align 4, !tbaa !12
  %36 = add nsw i32 %35, 1
  call void @mp_encode_lua_type(ptr noundef %33, ptr noundef %34, i32 noundef %36)
  br label %23, !llvm.loop !37

37:                                               ; preds = %23
  call void @llvm.lifetime.end.p0(i64 8, ptr %7) #6
  ret void
}