; Function Attrs: nounwind uwtable
define dso_local void @mp_encode_lua_table_as_map(ptr noundef %0, ptr noundef captures(none) %1, i32 noundef %2) local_unnamed_addr #2 {
  tail call void @luaL_checkstack(ptr noundef %0, i32 noundef 3, ptr noundef nonnull @.str.1) #10
  tail call void @lua_pushnil(ptr noundef %0) #10
  %4 = tail call i32 @lua_next(ptr noundef %0, i32 noundef -2) #10
  %.not17 = icmp eq i32 %4, 0
  br i1 %.not17, label %._crit_edge, label %.lr.ph

.lr.ph:                                           ; preds = %3, %.lr.ph
  %.018 = phi i64 [ %5, %.lr.ph ], [ 0, %3 ]
  tail call void @lua_settop(ptr noundef %0, i32 noundef -2) #10
  %5 = add i64 %.018, 1
  %6 = tail call i32 @lua_next(ptr noundef %0, i32 noundef -2) #10
  %.not = icmp eq i32 %6, 0
  br i1 %.not, label %._crit_edge, label %.lr.ph, !llvm.loop !24

._crit_edge:                                      ; preds = %.lr.ph, %3
  %.0.lcssa = phi i64 [ 0, %3 ], [ %5, %.lr.ph ]
  tail call void @mp_encode_map(ptr noundef %0, ptr noundef %1, i64 noundef %.0.lcssa)
  tail call void @lua_pushnil(ptr noundef %0) #10
  %7 = tail call i32 @lua_next(ptr noundef %0, i32 noundef -2) #10
  %.not1619 = icmp eq i32 %7, 0
  br i1 %.not1619, label %._crit_edge22, label %.lr.ph21

.lr.ph21:                                         ; preds = %._crit_edge
  %8 = add nsw i32 %2, 1
  br label %9

9:                                                ; preds = %.lr.ph21, %9
  tail call void @lua_pushvalue(ptr noundef %0, i32 noundef -2) #10
  tail call void @mp_encode_lua_type(ptr noundef %0, ptr noundef %1, i32 noundef %8)
  tail call void @mp_encode_lua_type(ptr noundef %0, ptr noundef %1, i32 noundef %8)
  %10 = tail call i32 @lua_next(ptr noundef %0, i32 noundef -2) #10
  %.not16 = icmp eq i32 %10, 0
  br i1 %.not16, label %._crit_edge22, label %9, !llvm.loop !25

._crit_edge22:                                    ; preds = %9, %._crit_edge
  ret void
}